; ModuleID = '2/1212.c'
source_filename = "2/1212.c"
target datalayout = "e-m:e-p270:32:32-p271:32:32-p272:64:64-i64:64-f80:128-n8:16:32:64-S128"
target triple = "x86_64-pc-linux-gnu"

%struct.score = type { [10 x i8], [26 x i8] }

@.str = private unnamed_addr constant [3 x i8] c"%d\00", align 1
@.str.1 = private unnamed_addr constant [3 x i8] c"%s\00", align 1
@book = common dso_local global [1000 x %struct.score] zeroinitializer, align 16
@.str.2 = private unnamed_addr constant [7 x i8] c"%c\0A%d\0A\00", align 1
@.str.3 = private unnamed_addr constant [4 x i8] c"%s\0A\00", align 1

; Function Attrs: noinline nounwind uwtable
define dso_local i32 @main() #0 {
  %1 = alloca i32, align 4
  %2 = alloca i32, align 4
  %3 = alloca i32, align 4
  %4 = alloca i32, align 4
  %5 = alloca i32, align 4
  %6 = alloca i32, align 4
  %7 = alloca i32, align 4
  %8 = alloca i8, align 1
  store i32 0, i32* %1, align 4
  store i32 0, i32* %7, align 4
  %9 = call i32 (i8*, ...) @__isoc99_scanf(i8* getelementptr inbounds ([3 x i8], [3 x i8]* @.str, i64 0, i64 0), i32* %6)
  store i32 0, i32* %2, align 4
  br label %10

10:                                               ; preds = %27, %0
  %11 = load i32, i32* %2, align 4
  %12 = load i32, i32* %6, align 4
  %13 = icmp slt i32 %11, %12
  br i1 %13, label %14, label %30

14:                                               ; preds = %10
  %15 = load i32, i32* %2, align 4
  %16 = sext i32 %15 to i64
  %17 = getelementptr inbounds [1000 x %struct.score], [1000 x %struct.score]* @book, i64 0, i64 %16
  %18 = getelementptr inbounds %struct.score, %struct.score* %17, i32 0, i32 0
  %19 = getelementptr inbounds [10 x i8], [10 x i8]* %18, i64 0, i64 0
  %20 = call i32 (i8*, ...) @__isoc99_scanf(i8* getelementptr inbounds ([3 x i8], [3 x i8]* @.str.1, i64 0, i64 0), i8* %19)
  %21 = load i32, i32* %2, align 4
  %22 = sext i32 %21 to i64
  %23 = getelementptr inbounds [1000 x %struct.score], [1000 x %struct.score]* @book, i64 0, i64 %22
  %24 = getelementptr inbounds %struct.score, %struct.score* %23, i32 0, i32 1
  %25 = getelementptr inbounds [26 x i8], [26 x i8]* %24, i64 0, i64 0
  %26 = call i32 (i8*, ...) @__isoc99_scanf(i8* getelementptr inbounds ([3 x i8], [3 x i8]* @.str.1, i64 0, i64 0), i8* %25)
  br label %27

27:                                               ; preds = %14
  %28 = load i32, i32* %2, align 4
  %29 = add nsw i32 %28, 1
  store i32 %29, i32* %2, align 4
  br label %10

30:                                               ; preds = %10
  store i32 0, i32* %2, align 4
  br label %31

31:                                               ; preds = %77, %30
  %32 = load i32, i32* %2, align 4
  %33 = icmp slt i32 %32, 26
  br i1 %33, label %34, label %80

34:                                               ; preds = %31
  store i32 0, i32* %5, align 4
  store i32 0, i32* %3, align 4
  br label %35

35:                                               ; preds = %64, %34
  %36 = load i32, i32* %3, align 4
  %37 = load i32, i32* %6, align 4
  %38 = icmp slt i32 %36, %37
  br i1 %38, label %39, label %67

39:                                               ; preds = %35
  store i32 0, i32* %4, align 4
  br label %40

40:                                               ; preds = %60, %39
  %41 = load i32, i32* %4, align 4
  %42 = icmp slt i32 %41, 26
  br i1 %42, label %43, label %63

43:                                               ; preds = %40
  %44 = load i32, i32* %3, align 4
  %45 = sext i32 %44 to i64
  %46 = getelementptr inbounds [1000 x %struct.score], [1000 x %struct.score]* @book, i64 0, i64 %45
  %47 = getelementptr inbounds %struct.score, %struct.score* %46, i32 0, i32 1
  %48 = load i32, i32* %4, align 4
  %49 = sext i32 %48 to i64
  %50 = getelementptr inbounds [26 x i8], [26 x i8]* %47, i64 0, i64 %49
  %51 = load i8, i8* %50, align 1
  %52 = sext i8 %51 to i32
  %53 = load i32, i32* %2, align 4
  %54 = add nsw i32 65, %53
  %55 = icmp eq i32 %52, %54
  br i1 %55, label %56, label %59

56:                                               ; preds = %43
  %57 = load i32, i32* %5, align 4
  %58 = add nsw i32 %57, 1
  store i32 %58, i32* %5, align 4
  br label %59

59:                                               ; preds = %56, %43
  br label %60

60:                                               ; preds = %59
  %61 = load i32, i32* %4, align 4
  %62 = add nsw i32 %61, 1
  store i32 %62, i32* %4, align 4
  br label %40

63:                                               ; preds = %40
  br label %64

64:                                               ; preds = %63
  %65 = load i32, i32* %3, align 4
  %66 = add nsw i32 %65, 1
  store i32 %66, i32* %3, align 4
  br label %35

67:                                               ; preds = %35
  %68 = load i32, i32* %5, align 4
  %69 = load i32, i32* %7, align 4
  %70 = icmp sgt i32 %68, %69
  br i1 %70, label %71, label %76

71:                                               ; preds = %67
  %72 = load i32, i32* %2, align 4
  %73 = add nsw i32 65, %72
  %74 = trunc i32 %73 to i8
  store i8 %74, i8* %8, align 1
  %75 = load i32, i32* %5, align 4
  store i32 %75, i32* %7, align 4
  br label %76

76:                                               ; preds = %71, %67
  br label %77

77:                                               ; preds = %76
  %78 = load i32, i32* %2, align 4
  %79 = add nsw i32 %78, 1
  store i32 %79, i32* %2, align 4
  br label %31

80:                                               ; preds = %31
  %81 = load i8, i8* %8, align 1
  %82 = sext i8 %81 to i32
  %83 = load i32, i32* %7, align 4
  %84 = call i32 (i8*, ...) @printf(i8* getelementptr inbounds ([7 x i8], [7 x i8]* @.str.2, i64 0, i64 0), i32 %82, i32 %83)
  store i32 0, i32* %3, align 4
  br label %85

85:                                               ; preds = %118, %80
  %86 = load i32, i32* %3, align 4
  %87 = load i32, i32* %6, align 4
  %88 = icmp slt i32 %86, %87
  br i1 %88, label %89, label %121

89:                                               ; preds = %85
  store i32 0, i32* %4, align 4
  br label %90

90:                                               ; preds = %114, %89
  %91 = load i32, i32* %4, align 4
  %92 = icmp slt i32 %91, 26
  br i1 %92, label %93, label %117

93:                                               ; preds = %90
  %94 = load i32, i32* %3, align 4
  %95 = sext i32 %94 to i64
  %96 = getelementptr inbounds [1000 x %struct.score], [1000 x %struct.score]* @book, i64 0, i64 %95
  %97 = getelementptr inbounds %struct.score, %struct.score* %96, i32 0, i32 1
  %98 = load i32, i32* %4, align 4
  %99 = sext i32 %98 to i64
  %100 = getelementptr inbounds [26 x i8], [26 x i8]* %97, i64 0, i64 %99
  %101 = load i8, i8* %100, align 1
  %102 = sext i8 %101 to i32
  %103 = load i8, i8* %8, align 1
  %104 = sext i8 %103 to i32
  %105 = icmp eq i32 %102, %104
  br i1 %105, label %106, label %113

106:                                              ; preds = %93
  %107 = load i32, i32* %3, align 4
  %108 = sext i32 %107 to i64
  %109 = getelementptr inbounds [1000 x %struct.score], [1000 x %struct.score]* @book, i64 0, i64 %108
  %110 = getelementptr inbounds %struct.score, %struct.score* %109, i32 0, i32 0
  %111 = getelementptr inbounds [10 x i8], [10 x i8]* %110, i64 0, i64 0
  %112 = call i32 (i8*, ...) @printf(i8* getelementptr inbounds ([4 x i8], [4 x i8]* @.str.3, i64 0, i64 0), i8* %111)
  br label %113

113:                                              ; preds = %106, %93
  br label %114

114:                                              ; preds = %113
  %115 = load i32, i32* %4, align 4
  %116 = add nsw i32 %115, 1
  store i32 %116, i32* %4, align 4
  br label %90

117:                                              ; preds = %90
  br label %118

118:                                              ; preds = %117
  %119 = load i32, i32* %3, align 4
  %120 = add nsw i32 %119, 1
  store i32 %120, i32* %3, align 4
  br label %85

121:                                              ; preds = %85
  ret i32 0
}

declare dso_local i32 @__isoc99_scanf(i8*, ...) #1

declare dso_local i32 @printf(i8*, ...) #1


!llvm.module.flags = !{!0}
!llvm.ident = !{!1}

!0 = !{i32 1, !"wchar_size", i32 4}
!1 = !{!"clang version 10.0.0-4ubuntu1 "}
